target datalayout = "e-m:e-p270:32:32-p271:32:32-p272:64:64-i64:64-i128:128-f80:128-n8:16:32:64-S128"
target triple = "x86_64-pc-linux-gnu"

%struct.sockaddr_un = type { i16, [108 x i8] }
%struct.RFile = type { %struct.RBasic, ptr }
%struct.RBasic = type { i64, i64 }
%struct.rb_io = type { i64, ptr, i32, i32, i32, i32, i64, ptr, %struct.rb_io_internal_buffer, %struct.rb_io_internal_buffer, i64, %struct.rb_io_encoding, ptr, %struct.rb_io_internal_buffer, ptr, i64, i32, i32, i64, i64, i64 }
%struct.rb_io_encoding = type { ptr, ptr, i32, i64 }
%struct.rb_io_internal_buffer = type <{ ptr, i32, i32, i32 }>
%union.__SOCKADDR_ARG = type { ptr }

@.str.15 = private unnamed_addr constant [15 x i8] c"getpeername(2)\00", align 1

; Function Attrs: nounwind sspstrong uwtable
define internal i64 @unix_peeraddr(i64 noundef %0) #0 {
  %2 = alloca i64, align 8
  %3 = alloca ptr, align 8
  %4 = alloca %struct.sockaddr_un, align 2
  %5 = alloca i32, align 4
  %6 = alloca i32, align 4
  %7 = alloca %union.__SOCKADDR_ARG, align 8
  store i64 %0, ptr %2, align 8, !tbaa !6
  call void @llvm.lifetime.start.p0(i64 8, ptr %3) #18
  call void @llvm.lifetime.start.p0(i64 110, ptr %4) #18
  call void @llvm.lifetime.start.p0(i64 4, ptr %5) #18
  store i32 110, ptr %5, align 4, !tbaa !10
  call void @llvm.lifetime.start.p0(i64 4, ptr %6) #18
  %8 = load i32, ptr %5, align 4, !tbaa !10
  store i32 %8, ptr %6, align 4, !tbaa !10
  %9 = load i64, ptr %2, align 8, !tbaa !6
  %10 = call i64 @rb_io_taint_check(i64 noundef %9)
  %11 = inttoptr i64 %10 to ptr
  %12 = getelementptr inbounds nuw %struct.RFile, ptr %11, i32 0, i32 1
  %13 = load ptr, ptr %12, align 8, !tbaa !18
  store ptr %13, ptr %3, align 8, !tbaa !22
  call void @rb_io_check_closed(ptr noundef %13)
  %14 = load ptr, ptr %3, align 8, !tbaa !22
  %15 = getelementptr inbounds nuw %struct.rb_io, ptr %14, i32 0, i32 2
  %16 = load i32, ptr %15, align 8, !tbaa !42
  store ptr %4, ptr %7, align 8, !tbaa !23
  %17 = getelementptr inbounds nuw %union.__SOCKADDR_ARG, ptr %7, i32 0, i32 0
  %18 = load ptr, ptr %17, align 8
  %19 = call i32 @getpeername(i32 noundef %16, ptr %18, ptr noundef %5) #18
  %20 = icmp slt i32 %19, 0
  br i1 %20, label %21, label %25

21:                                               ; preds = %1
  %22 = load ptr, ptr %3, align 8, !tbaa !22
  %23 = getelementptr inbounds nuw %struct.rb_io, ptr %22, i32 0, i32 6
  %24 = load i64, ptr %23, align 8, !tbaa !28
  call void @rsock_sys_fail_path(ptr noundef @.str.15, i64 noundef %24) #20
  unreachable

25:                                               ; preds = %1
  %26 = load i32, ptr %6, align 4, !tbaa !10
  %27 = load i32, ptr %5, align 4, !tbaa !10
  %28 = icmp ult i32 %26, %27
  br i1 %28, label %29, label %31

29:                                               ; preds = %25
  %30 = load i32, ptr %6, align 4, !tbaa !10
  store i32 %30, ptr %5, align 4, !tbaa !10
  br label %31

31:                                               ; preds = %29, %25
  %32 = load i32, ptr %5, align 4, !tbaa !10
  %33 = call i64 @rsock_unixaddr(ptr noundef %4, i32 noundef %32)
  call void @llvm.lifetime.end.p0(i64 4, ptr %6) #18
  call void @llvm.lifetime.end.p0(i64 4, ptr %5) #18
  call void @llvm.lifetime.end.p0(i64 110, ptr %4) #18
  call void @llvm.lifetime.end.p0(i64 8, ptr %3) #18
  ret i64 %33
}